Certificate:
    Data:
        Version: 3 (0x2)
        Serial Number:
            92:9a:44:da:cf:5c:cf:3a:74:bb:88:d9:6a:36:84:77
        Signature Algorithm: sha256WithRSAEncryption
        Issuer: CN=iotonix-ca
        Validity
            Not Before: Nov  7 08:38:38 2024 GMT
            Not After : Feb 10 08:38:38 2027 GMT
        Subject: CN=ralf-nb67
        Subject Public Key Info:
            Public Key Algorithm: rsaEncryption
                Public-Key: (2048 bit)
                Modulus:
                    00:da:5b:d9:aa:11:5f:ca:f1:fe:ec:56:f1:93:ce:
                    63:6e:92:1e:ad:79:04:84:a3:b5:41:58:d4:64:3b:
                    08:1c:9c:8a:a9:93:c6:28:83:db:b3:4c:1b:52:c2:
                    e3:97:7c:c8:31:e8:4e:23:dc:a7:5e:95:b9:1a:5b:
                    e0:7d:9f:12:e1:d6:c8:cd:77:f0:41:62:d3:cd:48:
                    8f:32:75:96:c4:79:98:f5:7f:b7:d1:78:c3:ea:ed:
                    16:5e:ff:37:f7:5f:67:34:3e:24:a8:23:05:e2:61:
                    88:a6:80:2d:cc:52:c6:d6:53:66:26:6e:49:3d:64:
                    43:2e:0d:cb:0d:a5:f9:50:f9:f3:05:4f:f5:77:24:
                    34:ac:da:41:e9:34:d8:ef:d4:76:b3:f2:a7:03:ba:
                    65:71:6d:50:b2:fe:9c:0b:38:56:fd:c1:35:76:d5:
                    7f:60:54:e2:14:fa:78:60:f5:14:1c:4b:79:f4:84:
                    2a:2b:cc:f5:fe:35:f6:63:6f:31:15:d0:7b:43:f3:
                    a6:e2:7c:d0:21:37:dd:8b:09:51:55:7d:ff:08:3a:
                    28:f2:0e:0e:b4:ec:8f:4a:09:6a:23:59:9e:ac:61:
                    5d:1c:7d:e2:27:d3:3a:59:f1:ae:1f:08:67:44:4f:
                    c8:15:24:37:df:bd:74:43:a6:20:f1:90:36:95:7d:
                    ce:ab
                Exponent: 65537 (0x10001)
        X509v3 extensions:
            X509v3 Basic Constraints: 
                CA:FALSE
            X509v3 Subject Key Identifier: 
                15:45:46:59:8D:25:FC:3D:CF:BA:38:2E:82:C7:14:17:80:F8:01:62
            X509v3 Authority Key Identifier: 
                keyid:AD:36:AB:9A:38:E3:2E:67:DF:1E:D6:4B:9F:A6:86:76:F0:C0:30:6C
                DirName:/CN=iotonix-ca
                serial:4A:93:C8:85:71:36:2C:46:51:C7:BC:B1:E1:13:C1:63:86:6A:3B:51
            X509v3 Extended Key Usage: 
                TLS Web Client Authentication
            X509v3 Key Usage: 
                Digital Signature
    Signature Algorithm: sha256WithRSAEncryption
    Signature Value:
        a9:18:e5:a2:c6:d4:ec:e3:54:97:2a:0f:a0:c3:54:19:32:89:
        7a:4e:e6:9f:63:ce:1f:18:29:65:51:bb:2c:2f:d3:18:f9:01:
        cd:f3:ca:a9:6d:62:0f:9f:d7:26:42:8f:6c:6f:d2:49:87:78:
        f2:9f:a7:c7:8f:7e:30:0d:35:05:6f:8e:50:b8:2b:2e:50:7f:
        ce:6d:01:96:1e:2c:3e:73:ee:30:30:59:a3:f3:e0:14:04:3f:
        66:1c:f7:df:fc:36:a7:d0:f0:9a:b5:fd:f2:04:16:8c:b5:80:
        c3:9e:fa:da:21:ff:d9:3b:2e:24:6a:90:ac:6a:17:a6:fd:bc:
        9d:34:e7:7a:b7:f6:a0:ab:5b:77:92:af:0a:7a:29:0e:8c:1c:
        e6:4c:e6:c6:79:f8:a9:68:44:bb:59:a2:05:c9:63:7a:fc:3c:
        31:c5:75:18:ff:59:dc:f5:3d:80:02:75:5d:4a:b6:6b:28:ec:
        1b:91:b6:9c:4e:49:2f:61:1f:95:f3:28:aa:db:66:b3:d8:d6:
        06:4b:e4:41:a3:3f:4f:5d:11:b3:15:35:05:80:cd:42:71:86:
        12:8a:73:86:b6:4a:63:47:c3:39:d3:d3:1a:83:bb:8a:3b:55:
        bb:69:87:6d:de:c5:e7:a4:1d:25:61:d8:f7:e0:0a:81:a3:e2:
        2a:6e:18:b5
-----BEGIN CERTIFICATE-----
MIIDVjCCAj6gAwIBAgIRAJKaRNrPXM86dLuI2Wo2hHcwDQYJKoZIhvcNAQELBQAw
FTETMBEGA1UEAwwKaW90b25peC1jYTAeFw0yNDExMDcwODM4MzhaFw0yNzAyMTAw
ODM4MzhaMBQxEjAQBgNVBAMMCXJhbGYtbmI2NzCCASIwDQYJKoZIhvcNAQEBBQAD
ggEPADCCAQoCggEBANpb2aoRX8rx/uxW8ZPOY26SHq15BISjtUFY1GQ7CByciqmT
xiiD27NMG1LC45d8yDHoTiPcp16VuRpb4H2fEuHWyM138EFi081IjzJ1lsR5mPV/
t9F4w+rtFl7/N/dfZzQ+JKgjBeJhiKaALcxSxtZTZiZuST1kQy4Nyw2l+VD58wVP
9XckNKzaQek02O/UdrPypwO6ZXFtULL+nAs4Vv3BNXbVf2BU4hT6eGD1FBxLefSE
KivM9f419mNvMRXQe0PzpuJ80CE33YsJUVV9/wg6KPIODrTsj0oJaiNZnqxhXRx9
4ifTOlnxrh8IZ0RPyBUkN9+9dEOmIPGQNpV9zqsCAwEAAaOBoTCBnjAJBgNVHRME
AjAAMB0GA1UdDgQWBBQVRUZZjSX8Pc+6OC6CxxQXgPgBYjBQBgNVHSMESTBHgBSt
NquaOOMuZ98e1kufpoZ28MAwbKEZpBcwFTETMBEGA1UEAwwKaW90b25peC1jYYIU
SpPIhXE2LEZRx7yx4RPBY4ZqO1EwEwYDVR0lBAwwCgYIKwYBBQUHAwIwCwYDVR0P
BAQDAgeAMA0GCSqGSIb3DQEBCwUAA4IBAQCpGOWixtTs41SXKg+gw1QZMol6Tuaf
Y84fGCllUbssL9MY+QHN88qpbWIPn9cmQo9sb9JJh3jyn6fHj34wDTUFb45QuCsu
UH/ObQGWHiw+c+4wMFmj8+AUBD9mHPff/Dan0PCatf3yBBaMtYDDnvraIf/ZOy4k
apCsahem/bydNOd6t/agq1t3kq8KeikOjBzmTObGefipaES7WaIFyWN6/DwxxXUY
/1nc9T2AAnVdSrZrKOwbkbacTkkvYR+V8yiq22az2NYGS+RBoz9PXRGzFTUFgM1C
cYYSinOGtkpjR8M509Mag7uKO1W7aYdt3sXnpB0lYdj34AqBo+Iqbhi1
-----END CERTIFICATE-----
